target datalayout = "e-m:e-p270:32:32-p271:32:32-p272:64:64-i64:64-i128:128-f80:128-n8:16:32:64-S128"
target triple = "x86_64-unknown-linux-gnu"

%class.ThreadPool = type <{ ptr, %"class.std::mutex", %"class.std::condition_variable", %"class.std::vector", i8, [7 x i8] }>
%"class.std::mutex" = type { %"class.std::__mutex_base" }
%"class.std::__mutex_base" = type { %union.pthread_mutex_t }
%union.pthread_mutex_t = type { %struct.__pthread_mutex_s }
%struct.__pthread_mutex_s = type { i32, i32, i32, i32, i32, i16, i16, %struct.__pthread_internal_list }
%struct.__pthread_internal_list = type { ptr, ptr }
%"class.std::condition_variable" = type { %"class.std::__condvar" }
%"class.std::__condvar" = type { %union.pthread_cond_t }
%union.pthread_cond_t = type { %struct.__pthread_cond_s }
%struct.__pthread_cond_s = type { %union.__atomic_wide_counter, %union.__atomic_wide_counter, [2 x i32], [2 x i32], i32, i32, [2 x i32] }
%union.__atomic_wide_counter = type { i64 }
%"class.std::vector" = type { %"struct.std::_Vector_base" }
%"struct.std::_Vector_base" = type { %"struct.std::_Vector_base<std::thread, std::allocator<std::thread>>::_Vector_impl" }
%"struct.std::_Vector_base<std::thread, std::allocator<std::thread>>::_Vector_impl" = type { %"struct.std::_Vector_base<std::thread, std::allocator<std::thread>>::_Vector_impl_data" }
%"struct.std::_Vector_base<std::thread, std::allocator<std::thread>>::_Vector_impl_data" = type { ptr, ptr, ptr }
%"class.std::unique_lock" = type <{ ptr, i8, [7 x i8] }>
%class.ParallelJob = type <{ ptr, ptr, ptr, i32, i8, [3 x i8] }>

; Function Attrs: mustprogress nounwind uwtable
define internal noundef i32 @_ZL18__gthread_active_pv() #4 {
entry:
  ret i32 1
}

; Function Attrs: mustprogress nounwind uwtable
define internal noundef i32 @_ZL22__gthread_mutex_unlockP15pthread_mutex_t(ptr noundef %__mutex) #4 {
entry:
  %retval = alloca i32, align 4
  %__mutex.addr = alloca ptr, align 8
  store ptr %__mutex, ptr %__mutex.addr, align 8
  %call = call noundef i32 @_ZL18__gthread_active_pv()
  %tobool = icmp ne i32 %call, 0
  br i1 %tobool, label %if.then, label %if.else

if.then:                                          ; preds = %entry
  %0 = load ptr, ptr %__mutex.addr, align 8
  %call1 = call i32 @pthread_mutex_unlock(ptr noundef %0) #3
  store i32 %call1, ptr %retval, align 4
  br label %return

if.else:                                          ; preds = %entry
  store i32 0, ptr %retval, align 4
  br label %return

return:                                           ; preds = %if.else, %if.then
  %1 = load i32, ptr %retval, align 4
  ret i32 %1
}

; Function Attrs: mustprogress uwtable
define internal noundef i32 @_ZL20__gthread_mutex_lockP15pthread_mutex_t(ptr noundef %__mutex) #6 {
entry:
  %retval = alloca i32, align 4
  %__mutex.addr = alloca ptr, align 8
  store ptr %__mutex, ptr %__mutex.addr, align 8
  %call = call noundef i32 @_ZL18__gthread_active_pv()
  %tobool = icmp ne i32 %call, 0
  br i1 %tobool, label %if.then, label %if.else

if.then:                                          ; preds = %entry
  %0 = load ptr, ptr %__mutex.addr, align 8
  %call1 = call i32 @pthread_mutex_lock(ptr noundef %0) #3
  store i32 %call1, ptr %retval, align 4
  br label %return

if.else:                                          ; preds = %entry
  store i32 0, ptr %retval, align 4
  br label %return

return:                                           ; preds = %if.else, %if.then
  %1 = load i32, ptr %retval, align 4
  ret i32 %1
}

; Function Attrs: mustprogress uwtable
define linkonce_odr dso_local void @_ZNSt5mutex6unlockEv(ptr noundef nonnull align 8 dereferenceable(40) %this) #6 comdat align 2 {
entry:
  %this.addr = alloca ptr, align 8
  store ptr %this, ptr %this.addr, align 8
  %this1 = load ptr, ptr %this.addr, align 8
  %_M_mutex = getelementptr inbounds %"class.std::__mutex_base", ptr %this1, i32 0, i32 0
  %call = call noundef i32 @_ZL22__gthread_mutex_unlockP15pthread_mutex_t(ptr noundef %_M_mutex)
  ret void
}

; Function Attrs: mustprogress uwtable
define linkonce_odr dso_local void @_ZNSt5mutex4lockEv(ptr noundef nonnull align 8 dereferenceable(40) %this) #6 comdat align 2 {
entry:
  %this.addr = alloca ptr, align 8
  %__e = alloca i32, align 4
  store ptr %this, ptr %this.addr, align 8
  %this1 = load ptr, ptr %this.addr, align 8
  %_M_mutex = getelementptr inbounds %"class.std::__mutex_base", ptr %this1, i32 0, i32 0
  %call = call noundef i32 @_ZL20__gthread_mutex_lockP15pthread_mutex_t(ptr noundef %_M_mutex)
  store i32 %call, ptr %__e, align 4
  %0 = load i32, ptr %__e, align 4
  %tobool = icmp ne i32 %0, 0
  br i1 %tobool, label %if.then, label %if.end

if.then:                                          ; preds = %entry
  %1 = load i32, ptr %__e, align 4
  call void @_ZSt20__throw_system_errori(i32 noundef %1) #19
  unreachable

if.end:                                           ; preds = %entry
  ret void
}

; Function Attrs: noreturn nounwind uwtable
define linkonce_odr hidden void @__clang_call_terminate(ptr noundef %0) #9 comdat {
  %2 = call ptr @__cxa_begin_catch(ptr %0) #3
  call void @_ZSt9terminatev() #22
  unreachable
}

; Function Attrs: mustprogress uwtable
define linkonce_odr dso_local void @_ZNSt11unique_lockISt5mutexE6unlockEv(ptr noundef nonnull align 8 dereferenceable(9) %this) #6 comdat align 2 {
entry:
  %this.addr = alloca ptr, align 8
  store ptr %this, ptr %this.addr, align 8
  %this1 = load ptr, ptr %this.addr, align 8
  %_M_owns = getelementptr inbounds %"class.std::unique_lock", ptr %this1, i32 0, i32 1
  %0 = load i8, ptr %_M_owns, align 8
  %tobool = trunc i8 %0 to i1
  br i1 %tobool, label %if.else, label %if.then

if.then:                                          ; preds = %entry
  call void @_ZSt20__throw_system_errori(i32 noundef 1) #19
  unreachable

if.else:                                          ; preds = %entry
  %_M_device = getelementptr inbounds %"class.std::unique_lock", ptr %this1, i32 0, i32 0
  %1 = load ptr, ptr %_M_device, align 8
  %tobool2 = icmp ne ptr %1, null
  br i1 %tobool2, label %if.then3, label %if.end

if.then3:                                         ; preds = %if.else
  %_M_device4 = getelementptr inbounds %"class.std::unique_lock", ptr %this1, i32 0, i32 0
  %2 = load ptr, ptr %_M_device4, align 8
  call void @_ZNSt5mutex6unlockEv(ptr noundef nonnull align 8 dereferenceable(40) %2)
  %_M_owns5 = getelementptr inbounds %"class.std::unique_lock", ptr %this1, i32 0, i32 1
  store i8 0, ptr %_M_owns5, align 8
  br label %if.end

if.end:                                           ; preds = %if.then3, %if.else
  br label %if.end6

if.end6:                                          ; preds = %if.end
  ret void
}

; Function Attrs: mustprogress uwtable
define linkonce_odr dso_local void @_ZNSt11unique_lockISt5mutexE4lockEv(ptr noundef nonnull align 8 dereferenceable(9) %this) #6 comdat align 2 {
entry:
  %this.addr = alloca ptr, align 8
  store ptr %this, ptr %this.addr, align 8
  %this1 = load ptr, ptr %this.addr, align 8
  %_M_device = getelementptr inbounds %"class.std::unique_lock", ptr %this1, i32 0, i32 0
  %0 = load ptr, ptr %_M_device, align 8
  %tobool = icmp ne ptr %0, null
  br i1 %tobool, label %if.else, label %if.then

if.then:                                          ; preds = %entry
  call void @_ZSt20__throw_system_errori(i32 noundef 1) #19
  unreachable

if.else:                                          ; preds = %entry
  %_M_owns = getelementptr inbounds %"class.std::unique_lock", ptr %this1, i32 0, i32 1
  %1 = load i8, ptr %_M_owns, align 8
  %tobool2 = trunc i8 %1 to i1
  br i1 %tobool2, label %if.then3, label %if.else4

if.then3:                                         ; preds = %if.else
  call void @_ZSt20__throw_system_errori(i32 noundef 35) #19
  unreachable

if.else4:                                         ; preds = %if.else
  %_M_device5 = getelementptr inbounds %"class.std::unique_lock", ptr %this1, i32 0, i32 0
  %2 = load ptr, ptr %_M_device5, align 8
  call void @_ZNSt5mutex4lockEv(ptr noundef nonnull align 8 dereferenceable(40) %2)
  %_M_owns6 = getelementptr inbounds %"class.std::unique_lock", ptr %this1, i32 0, i32 1
  store i8 1, ptr %_M_owns6, align 8
  br label %if.end

if.end:                                           ; preds = %if.else4
  br label %if.end7

if.end7:                                          ; preds = %if.end
  ret void
}

; Function Attrs: mustprogress nounwind uwtable
define linkonce_odr dso_local void @_ZNSt11unique_lockISt5mutexED2Ev(ptr noundef nonnull align 8 dereferenceable(9) %this) unnamed_addr #4 comdat align 2 personality ptr @__gxx_personality_v0 {
entry:
  %this.addr = alloca ptr, align 8
  store ptr %this, ptr %this.addr, align 8
  %this1 = load ptr, ptr %this.addr, align 8
  %_M_owns = getelementptr inbounds %"class.std::unique_lock", ptr %this1, i32 0, i32 1
  %0 = load i8, ptr %_M_owns, align 8
  %tobool = trunc i8 %0 to i1
  br i1 %tobool, label %if.then, label %if.end

if.then:                                          ; preds = %entry
  invoke void @_ZNSt11unique_lockISt5mutexE6unlockEv(ptr noundef nonnull align 8 dereferenceable(9) %this1)
          to label %invoke.cont unwind label %terminate.lpad

invoke.cont:                                      ; preds = %if.then
  br label %if.end

if.end:                                           ; preds = %invoke.cont, %entry
  ret void

terminate.lpad:                                   ; preds = %if.then
  %1 = landingpad { ptr, i32 }
          catch ptr null
  %2 = extractvalue { ptr, i32 } %1, 0
  call void @__clang_call_terminate(ptr %2) #22
  unreachable
}

; Function Attrs: mustprogress uwtable
define linkonce_odr dso_local void @_ZNSt11unique_lockISt5mutexEC2ERS0_(ptr noundef nonnull align 8 dereferenceable(9) %this, ptr noundef nonnull align 8 dereferenceable(40) %__m) unnamed_addr #6 comdat align 2 {
entry:
  %this.addr = alloca ptr, align 8
  %__m.addr = alloca ptr, align 8
  store ptr %this, ptr %this.addr, align 8
  store ptr %__m, ptr %__m.addr, align 8
  %this1 = load ptr, ptr %this.addr, align 8
  %_M_device = getelementptr inbounds %"class.std::unique_lock", ptr %this1, i32 0, i32 0
  %0 = load ptr, ptr %__m.addr, align 8
  store ptr %0, ptr %_M_device, align 8
  %_M_owns = getelementptr inbounds %"class.std::unique_lock", ptr %this1, i32 0, i32 1
  store i8 0, ptr %_M_owns, align 8
  call void @_ZNSt11unique_lockISt5mutexE4lockEv(ptr noundef nonnull align 8 dereferenceable(9) %this1)
  %_M_owns2 = getelementptr inbounds %"class.std::unique_lock", ptr %this1, i32 0, i32 1
  store i8 1, ptr %_M_owns2, align 8
  ret void
}

; Function Attrs: mustprogress uwtable
define dso_local void @_ZN10ThreadPool12AddToJobListEP11ParallelJob(ptr noalias sret(%"class.std::unique_lock") align 8 %agg.result, ptr noundef nonnull align 8 dereferenceable(121) %this, ptr noundef %job) #6 align 2 {
entry:
  %result.ptr = alloca ptr, align 8
  %this.addr = alloca ptr, align 8
  %job.addr = alloca ptr, align 8
  %nrvo = alloca i1, align 1
  store ptr %agg.result, ptr %result.ptr, align 8
  store ptr %this, ptr %this.addr, align 8
  store ptr %job, ptr %job.addr, align 8
  %this1 = load ptr, ptr %this.addr, align 8
  store i1 false, ptr %nrvo, align 1
  %jobListMutex = getelementptr inbounds %class.ThreadPool, ptr %this1, i32 0, i32 1
  call void @_ZNSt11unique_lockISt5mutexEC2ERS0_(ptr noundef nonnull align 8 dereferenceable(9) %agg.result, ptr noundef nonnull align 8 dereferenceable(40) %jobListMutex)
  %jobList = getelementptr inbounds %class.ThreadPool, ptr %this1, i32 0, i32 0
  %0 = load ptr, ptr %jobList, align 8
  %cmp = icmp ne ptr %0, null
  br i1 %cmp, label %if.then, label %if.end

if.then:                                          ; preds = %entry
  %1 = load ptr, ptr %job.addr, align 8
  %jobList2 = getelementptr inbounds %class.ThreadPool, ptr %this1, i32 0, i32 0
  %2 = load ptr, ptr %jobList2, align 8
  %prev = getelementptr inbounds %class.ParallelJob, ptr %2, i32 0, i32 1
  store ptr %1, ptr %prev, align 8
  br label %if.end

if.end:                                           ; preds = %if.then, %entry
  %jobList3 = getelementptr inbounds %class.ThreadPool, ptr %this1, i32 0, i32 0
  %3 = load ptr, ptr %jobList3, align 8
  %4 = load ptr, ptr %job.addr, align 8
  %next = getelementptr inbounds %class.ParallelJob, ptr %4, i32 0, i32 2
  store ptr %3, ptr %next, align 8
  %5 = load ptr, ptr %job.addr, align 8
  %jobList4 = getelementptr inbounds %class.ThreadPool, ptr %this1, i32 0, i32 0
  store ptr %5, ptr %jobList4, align 8
  %jobListCondition = getelementptr inbounds %class.ThreadPool, ptr %this1, i32 0, i32 2
  call void @_ZNSt18condition_variable10notify_allEv(ptr noundef nonnull align 8 dereferenceable(48) %jobListCondition) #3
  store i1 true, ptr %nrvo, align 1
  %nrvo.val = load i1, ptr %nrvo, align 1
  br i1 %nrvo.val, label %nrvo.skipdtor, label %nrvo.unused

nrvo.unused:                                      ; preds = %if.end
  call void @_ZNSt11unique_lockISt5mutexED2Ev(ptr noundef nonnull align 8 dereferenceable(9) %agg.result) #3
  br label %nrvo.skipdtor

nrvo.skipdtor:                                    ; preds = %nrvo.unused, %if.end
  ret void
}