; Function Attrs: mustprogress uwtable
define dso_local void @_ZN10ThreadPool12AddToJobListEP11ParallelJob(ptr noalias nocapture writeonly sret(%"class.std::unique_lock") align 8 %agg.result, ptr noundef nonnull align 8 dereferenceable(121) %this, ptr noundef %job) local_unnamed_addr #9 align 2 {
entry:
  %jobListMutex = getelementptr inbounds i8, ptr %this, i64 8
  store ptr %jobListMutex, ptr %agg.result, align 8
  %_M_owns.i = getelementptr inbounds i8, ptr %agg.result, i64 8
  store i8 0, ptr %_M_owns.i, align 8
  %call1.i.i.i.i = tail call noundef i32 @pthread_mutex_lock(ptr noundef nonnull %jobListMutex) #31
  %tobool.not.i.i.i = icmp eq i32 %call1.i.i.i.i, 0
  br i1 %tobool.not.i.i.i, label %_ZNSt11unique_lockISt5mutexEC2ERS0_.exit, label %if.then.i.i.i

if.then.i.i.i:                                    ; preds = %entry
  tail call void @_ZSt20__throw_system_errori(i32 noundef %call1.i.i.i.i) #32
  unreachable

_ZNSt11unique_lockISt5mutexEC2ERS0_.exit:         ; preds = %entry
  store i8 1, ptr %_M_owns.i, align 8
  %0 = load ptr, ptr %this, align 8
  %cmp.not = icmp eq ptr %0, null
  br i1 %cmp.not, label %if.end, label %if.then

if.then:                                          ; preds = %_ZNSt11unique_lockISt5mutexEC2ERS0_.exit
  %prev = getelementptr inbounds i8, ptr %0, i64 8
  store ptr %job, ptr %prev, align 8
  %.pre = load ptr, ptr %this, align 8
  br label %if.end

if.end:                                           ; preds = %if.then, %_ZNSt11unique_lockISt5mutexEC2ERS0_.exit
  %1 = phi ptr [ %.pre, %if.then ], [ null, %_ZNSt11unique_lockISt5mutexEC2ERS0_.exit ]
  %next = getelementptr inbounds i8, ptr %job, i64 16
  store ptr %1, ptr %next, align 8
  store ptr %job, ptr %this, align 8
  %jobListCondition = getelementptr inbounds i8, ptr %this, i64 48
  tail call void @_ZNSt18condition_variable10notify_allEv(ptr noundef nonnull align 8 dereferenceable(48) %jobListCondition) #31
  ret void
}